target datalayout = "e-m:e-p270:32:32-p271:32:32-p272:64:64-i64:64-i128:128-f80:128-n8:16:32:64-S128"
target triple = "x86_64-pc-linux-gnu"

%"class.icu_77::FormattedList" = type <{ %"class.icu_77::FormattedValue", ptr, i32, [4 x i8] }>
%"class.icu_77::FormattedValue" = type { ptr }
%"class.icu_77::UnicodeString" = type { %"class.icu_77::Replaceable", %"union.icu_77::UnicodeString::StackBufferOrFields" }
%"class.icu_77::Replaceable" = type { %"class.icu_77::UObject" }
%"class.icu_77::UObject" = type { ptr }
%"union.icu_77::UnicodeString::StackBufferOrFields" = type { %struct.anon.4, [32 x i8] }
%struct.anon.4 = type { i16, i32, i32, ptr }
%"class.icu_77::UnicodeStringAppendable" = type { %"class.icu_77::Appendable", ptr }
%"class.icu_77::Appendable" = type { %"class.icu_77::UObject" }
%"class.icu_77::ConstrainedFieldPosition" = type <{ i64, i32, i32, i32, i32, i8, [7 x i8] }>

@_ZTVN6icu_777UObjectE = available_externally unnamed_addr constant { [5 x ptr] } { [5 x ptr] [ptr null, ptr @_ZTIN6icu_777UObjectE, ptr @_ZN6icu_777UObjectD1Ev, ptr @_ZN6icu_777UObjectD0Ev, ptr @_ZNK6icu_777UObject17getDynamicClassIDEv] }, align 8
@_ZN6icu_7713FormattedListD1Ev = unnamed_addr alias void (ptr), ptr @_ZN6icu_7713FormattedListD2Ev

; Function Attrs: inlinehint mustprogress nounwind uwtable
define linkonce_odr void @_ZN6icu_777UObjectC2Ev(ptr noundef nonnull align 8 dereferenceable(8) %0) unnamed_addr #2 comdat align 2 {
  %2 = alloca ptr, align 8
  store ptr %0, ptr %2, align 8, !tbaa !46
  %3 = load ptr, ptr %2, align 8
  store ptr getelementptr inbounds inrange(-16, 24) ({ [5 x ptr] }, ptr @_ZTVN6icu_777UObjectE, i32 0, i32 0, i32 2), ptr %3, align 8, !tbaa !27
  ret void
}

; Function Attrs: inlinehint mustprogress nounwind uwtable
define internal noundef signext i8 @_ZL9U_FAILURE10UErrorCode(i32 noundef %0) #2 {
  %2 = alloca i32, align 4
  store i32 %0, ptr %2, align 4, !tbaa !15
  %3 = load i32, ptr %2, align 4, !tbaa !15
  %4 = icmp sgt i32 %3, 0
  %5 = zext i1 %4 to i8
  ret i8 %5
}

; Function Attrs: inlinehint mustprogress nounwind uwtable
define linkonce_odr void @_ZN6icu_7710AppendableC2Ev(ptr noundef nonnull align 8 dereferenceable(8) %0) unnamed_addr #2 comdat align 2 {
  %2 = alloca ptr, align 8
  store ptr %0, ptr %2, align 8, !tbaa !35
  %3 = load ptr, ptr %2, align 8
  call void @_ZN6icu_777UObjectC2Ev(ptr noundef nonnull align 8 dereferenceable(8) %3) #12
  store ptr getelementptr inbounds inrange(-16, 64) ({ [10 x ptr] }, ptr @_ZTVN6icu_7710AppendableE, i32 0, i32 0, i32 2), ptr %3, align 8, !tbaa !27
  ret void
}

; Function Attrs: inlinehint mustprogress nounwind uwtable
define linkonce_odr noundef i32 @_ZNK6icu_7713UnicodeString14getShortLengthEv(ptr noundef nonnull align 8 dereferenceable(64) %0) #2 comdat align 2 {
  %2 = alloca ptr, align 8
  store ptr %0, ptr %2, align 8, !tbaa !72
  %3 = load ptr, ptr %2, align 8
  %4 = getelementptr inbounds nuw %"class.icu_77::UnicodeString", ptr %3, i32 0, i32 1
  %5 = getelementptr inbounds nuw %struct.anon.4, ptr %4, i32 0, i32 0
  %6 = load i16, ptr %5, align 8, !tbaa !65
  %7 = sext i16 %6 to i32
  %8 = ashr i32 %7, 5
  ret i32 %8
}

; Function Attrs: inlinehint mustprogress nounwind uwtable
define linkonce_odr noundef signext i8 @_ZNK6icu_7713UnicodeString14hasShortLengthEv(ptr noundef nonnull align 8 dereferenceable(64) %0) #2 comdat align 2 {
  %2 = alloca ptr, align 8
  store ptr %0, ptr %2, align 8, !tbaa !72
  %3 = load ptr, ptr %2, align 8
  %4 = getelementptr inbounds nuw %"class.icu_77::UnicodeString", ptr %3, i32 0, i32 1
  %5 = getelementptr inbounds nuw %struct.anon.4, ptr %4, i32 0, i32 0
  %6 = load i16, ptr %5, align 8, !tbaa !65
  %7 = sext i16 %6 to i32
  %8 = icmp sge i32 %7, 0
  %9 = zext i1 %8 to i8
  ret i8 %9
}

; Function Attrs: inlinehint mustprogress nounwind uwtable
define linkonce_odr noundef i32 @_ZNK6icu_7724ConstrainedFieldPosition8getStartEv(ptr noundef nonnull align 8 dereferenceable(25) %0) #2 comdat align 2 {
  %2 = alloca ptr, align 8
  store ptr %0, ptr %2, align 8, !tbaa !37
  %3 = load ptr, ptr %2, align 8
  %4 = getelementptr inbounds nuw %"class.icu_77::ConstrainedFieldPosition", ptr %3, i32 0, i32 2
  %5 = load i32, ptr %4, align 4, !tbaa !89
  ret i32 %5
}

; Function Attrs: mustprogress uwtable
define noundef signext i8 @_ZNK6icu_7713FormattedList12nextPositionERNS_24ConstrainedFieldPositionER10UErrorCode(ptr noundef nonnull align 8 dereferenceable(20) %0, ptr noundef nonnull align 8 dereferenceable(25) %1, ptr noundef nonnull align 4 dereferenceable(4) %2) unnamed_addr #1 align 2 {
  %4 = alloca i8, align 1
  %5 = alloca ptr, align 8
  %6 = alloca ptr, align 8
  %7 = alloca ptr, align 8
  store ptr %0, ptr %5, align 8, !tbaa !25
  store ptr %1, ptr %6, align 8, !tbaa !37
  store ptr %2, ptr %7, align 8, !tbaa !22
  %8 = load ptr, ptr %5, align 8
  %9 = load ptr, ptr %7, align 8, !tbaa !22
  %10 = load i32, ptr %9, align 4, !tbaa !15
  %11 = call noundef signext i8 @_ZL9U_FAILURE10UErrorCode(i32 noundef %10)
  %12 = icmp ne i8 %11, 0
  br i1 %12, label %13, label %14

13:                                               ; preds = %3
  store i8 0, ptr %4, align 1
  br label %31

14:                                               ; preds = %3
  %15 = getelementptr inbounds nuw %"class.icu_77::FormattedList", ptr %8, i32 0, i32 1
  %16 = load ptr, ptr %15, align 8, !tbaa !29
  %17 = icmp eq ptr %16, null
  br i1 %17, label %18, label %22

18:                                               ; preds = %14
  %19 = getelementptr inbounds nuw %"class.icu_77::FormattedList", ptr %8, i32 0, i32 2
  %20 = load i32, ptr %19, align 8, !tbaa !32
  %21 = load ptr, ptr %7, align 8, !tbaa !22
  store i32 %20, ptr %21, align 4, !tbaa !15
  store i8 0, ptr %4, align 1
  br label %31

22:                                               ; preds = %14
  %23 = getelementptr inbounds nuw %"class.icu_77::FormattedList", ptr %8, i32 0, i32 1
  %24 = load ptr, ptr %23, align 8, !tbaa !29
  %25 = load ptr, ptr %6, align 8, !tbaa !37
  %26 = load ptr, ptr %7, align 8, !tbaa !22
  %27 = load ptr, ptr %24, align 8, !tbaa !27
  %28 = getelementptr inbounds ptr, ptr %27, i64 5
  %29 = load ptr, ptr %28, align 8
  %30 = call noundef signext i8 %29(ptr noundef nonnull align 8 dereferenceable(300) %24, ptr noundef nonnull align 8 dereferenceable(25) %25, ptr noundef nonnull align 4 dereferenceable(4) %26)
  store i8 %30, ptr %4, align 1
  br label %31

31:                                               ; preds = %22, %18, %13
  %32 = load i8, ptr %4, align 1
  ret i8 %32
}

; Function Attrs: mustprogress uwtable
define noundef nonnull align 8 dereferenceable(8) ptr @_ZNK6icu_7713FormattedList8appendToERNS_10AppendableER10UErrorCode(ptr noundef nonnull align 8 dereferenceable(20) %0, ptr noundef nonnull align 8 dereferenceable(8) %1, ptr noundef nonnull align 4 dereferenceable(4) %2) unnamed_addr #1 align 2 {
  %4 = alloca ptr, align 8
  %5 = alloca ptr, align 8
  %6 = alloca ptr, align 8
  %7 = alloca ptr, align 8
  store ptr %0, ptr %5, align 8, !tbaa !25
  store ptr %1, ptr %6, align 8, !tbaa !35
  store ptr %2, ptr %7, align 8, !tbaa !22
  %8 = load ptr, ptr %5, align 8
  %9 = load ptr, ptr %7, align 8, !tbaa !22
  %10 = load i32, ptr %9, align 4, !tbaa !15
  %11 = call noundef signext i8 @_ZL9U_FAILURE10UErrorCode(i32 noundef %10)
  %12 = icmp ne i8 %11, 0
  br i1 %12, label %13, label %15

13:                                               ; preds = %3
  %14 = load ptr, ptr %6, align 8, !tbaa !35
  store ptr %14, ptr %4, align 8
  br label %33

15:                                               ; preds = %3
  %16 = getelementptr inbounds nuw %"class.icu_77::FormattedList", ptr %8, i32 0, i32 1
  %17 = load ptr, ptr %16, align 8, !tbaa !29
  %18 = icmp eq ptr %17, null
  br i1 %18, label %19, label %24

19:                                               ; preds = %15
  %20 = getelementptr inbounds nuw %"class.icu_77::FormattedList", ptr %8, i32 0, i32 2
  %21 = load i32, ptr %20, align 8, !tbaa !32
  %22 = load ptr, ptr %7, align 8, !tbaa !22
  store i32 %21, ptr %22, align 4, !tbaa !15
  %23 = load ptr, ptr %6, align 8, !tbaa !35
  store ptr %23, ptr %4, align 8
  br label %33

24:                                               ; preds = %15
  %25 = getelementptr inbounds nuw %"class.icu_77::FormattedList", ptr %8, i32 0, i32 1
  %26 = load ptr, ptr %25, align 8, !tbaa !29
  %27 = load ptr, ptr %6, align 8, !tbaa !35
  %28 = load ptr, ptr %7, align 8, !tbaa !22
  %29 = load ptr, ptr %26, align 8, !tbaa !27
  %30 = getelementptr inbounds ptr, ptr %29, i64 4
  %31 = load ptr, ptr %30, align 8
  %32 = call noundef nonnull align 8 dereferenceable(8) ptr %31(ptr noundef nonnull align 8 dereferenceable(300) %26, ptr noundef nonnull align 8 dereferenceable(8) %27, ptr noundef nonnull align 4 dereferenceable(4) %28)
  store ptr %32, ptr %4, align 8
  br label %33

33:                                               ; preds = %24, %19, %13
  %34 = load ptr, ptr %4, align 8
  ret ptr %34
}

; Function Attrs: mustprogress nounwind uwtable
define linkonce_odr void @_ZN6icu_7723UnicodeStringAppendableC2ERNS_13UnicodeStringE(ptr noundef nonnull align 8 dereferenceable(16) %0, ptr noundef nonnull align 8 dereferenceable(64) %1) unnamed_addr #0 comdat align 2 {
  %3 = alloca ptr, align 8
  %4 = alloca ptr, align 8
  store ptr %0, ptr %3, align 8, !tbaa !87
  store ptr %1, ptr %4, align 8, !tbaa !72
  %5 = load ptr, ptr %3, align 8
  call void @_ZN6icu_7710AppendableC2Ev(ptr noundef nonnull align 8 dereferenceable(8) %5) #12
  store ptr getelementptr inbounds inrange(-16, 64) ({ [10 x ptr] }, ptr @_ZTVN6icu_7723UnicodeStringAppendableE, i32 0, i32 0, i32 2), ptr %5, align 8, !tbaa !27
  %6 = getelementptr inbounds nuw %"class.icu_77::UnicodeStringAppendable", ptr %5, i32 0, i32 1
  %7 = load ptr, ptr %4, align 8, !tbaa !72
  store ptr %7, ptr %6, align 8, !tbaa !72
  ret void
}

; Function Attrs: inlinehint mustprogress uwtable
define linkonce_odr noundef i32 @_ZNK6icu_7713UnicodeString6lengthEv(ptr noundef nonnull align 8 dereferenceable(64) %0) #3 comdat align 2 {
  %2 = alloca ptr, align 8
  store ptr %0, ptr %2, align 8, !tbaa !72
  %3 = load ptr, ptr %2, align 8
  %4 = call noundef signext i8 @_ZNK6icu_7713UnicodeString14hasShortLengthEv(ptr noundef nonnull align 8 dereferenceable(64) %3)
  %5 = icmp ne i8 %4, 0
  br i1 %5, label %6, label %8

6:                                                ; preds = %1
  %7 = call noundef i32 @_ZNK6icu_7713UnicodeString14getShortLengthEv(ptr noundef nonnull align 8 dereferenceable(64) %3)
  br label %12

8:                                                ; preds = %1
  %9 = getelementptr inbounds nuw %"class.icu_77::UnicodeString", ptr %3, i32 0, i32 1
  %10 = getelementptr inbounds nuw %struct.anon.4, ptr %9, i32 0, i32 1
  %11 = load i32, ptr %10, align 4, !tbaa !65
  br label %12

12:                                               ; preds = %8, %6
  %13 = phi i32 [ %7, %6 ], [ %11, %8 ]
  ret i32 %13
}

; Function Attrs: mustprogress uwtable
define noundef nonnull align 8 dereferenceable(64) ptr @_ZNK6icu_7713ListFormatter6formatEPKNS_13UnicodeStringEiRS1_iRiR10UErrorCode(ptr noundef nonnull align 8 dereferenceable(24) %0, ptr noundef %1, i32 noundef %2, ptr noundef nonnull align 8 dereferenceable(64) %3, i32 noundef %4, ptr noundef nonnull align 4 dereferenceable(4) %5, ptr noundef nonnull align 4 dereferenceable(4) %6) #1 align 2 personality ptr @__gxx_personality_v0 {
  %8 = alloca ptr, align 8
  %9 = alloca ptr, align 8
  %10 = alloca i32, align 4
  %11 = alloca ptr, align 8
  %12 = alloca i32, align 4
  %13 = alloca ptr, align 8
  %14 = alloca ptr, align 8
  %15 = alloca i32, align 4
  %16 = alloca %"class.icu_77::FormattedList", align 8
  %17 = alloca %"class.icu_77::UnicodeStringAppendable", align 8
  %18 = alloca ptr, align 8
  %19 = alloca i32, align 4
  %20 = alloca %"class.icu_77::ConstrainedFieldPosition", align 8
  store ptr %0, ptr %8, align 8, !tbaa !39
  store ptr %1, ptr %9, align 8, !tbaa !72
  store i32 %2, ptr %10, align 4, !tbaa !14
  store ptr %3, ptr %11, align 8, !tbaa !72
  store i32 %4, ptr %12, align 4, !tbaa !14
  store ptr %5, ptr %13, align 8, !tbaa !20
  store ptr %6, ptr %14, align 8, !tbaa !22
  %21 = load ptr, ptr %8, align 8
  call void @llvm.lifetime.start.p0(i64 4, ptr %15) #12
  %22 = load ptr, ptr %11, align 8, !tbaa !72
  %23 = call noundef i32 @_ZNK6icu_7713UnicodeString6lengthEv(ptr noundef nonnull align 8 dereferenceable(64) %22)
  store i32 %23, ptr %15, align 4, !tbaa !14
  call void @llvm.lifetime.start.p0(i64 24, ptr %16) #12
  %24 = load ptr, ptr %9, align 8, !tbaa !72
  %25 = load i32, ptr %10, align 4, !tbaa !14
  %26 = load ptr, ptr %14, align 8, !tbaa !22
  call void @_ZNK6icu_7713ListFormatter20formatStringsToValueEPKNS_13UnicodeStringEiR10UErrorCode(ptr dead_on_unwind writable sret(%"class.icu_77::FormattedList") align 8 %16, ptr noundef nonnull align 8 dereferenceable(24) %21, ptr noundef %24, i32 noundef %25, ptr noundef nonnull align 4 dereferenceable(4) %26)
  call void @llvm.lifetime.start.p0(i64 16, ptr %17) #12
  %27 = load ptr, ptr %11, align 8, !tbaa !72
  invoke void @_ZN6icu_7723UnicodeStringAppendableC2ERNS_13UnicodeStringE(ptr noundef nonnull align 8 dereferenceable(16) %17, ptr noundef nonnull align 8 dereferenceable(64) %27)
          to label %28 unwind label %46

28:                                               ; preds = %7
  %29 = load ptr, ptr %14, align 8, !tbaa !22
  %30 = invoke noundef nonnull align 8 dereferenceable(8) ptr @_ZNK6icu_7713FormattedList8appendToERNS_10AppendableER10UErrorCode(ptr noundef nonnull align 8 dereferenceable(20) %16, ptr noundef nonnull align 8 dereferenceable(8) %17, ptr noundef nonnull align 4 dereferenceable(4) %29)
          to label %31 unwind label %50

31:                                               ; preds = %28
  %32 = load i32, ptr %12, align 4, !tbaa !14
  %33 = icmp sge i32 %32, 0
  br i1 %33, label %34, label %63

34:                                               ; preds = %31
  call void @llvm.lifetime.start.p0(i64 32, ptr %20) #12
  invoke void @_ZN6icu_7724ConstrainedFieldPositionC1Ev(ptr noundef nonnull align 8 dereferenceable(25) %20)
          to label %35 unwind label %54

35:                                               ; preds = %34
  %36 = load i32, ptr %12, align 4, !tbaa !14
  invoke void @_ZN6icu_7724ConstrainedFieldPosition14constrainFieldEii(ptr noundef nonnull align 8 dereferenceable(25) %20, i32 noundef 4099, i32 noundef %36)
          to label %37 unwind label %58

37:                                               ; preds = %35
  %38 = load ptr, ptr %14, align 8, !tbaa !22
  %39 = invoke noundef signext i8 @_ZNK6icu_7713FormattedList12nextPositionERNS_24ConstrainedFieldPositionER10UErrorCode(ptr noundef nonnull align 8 dereferenceable(20) %16, ptr noundef nonnull align 8 dereferenceable(25) %20, ptr noundef nonnull align 4 dereferenceable(4) %38)
          to label %40 unwind label %58

40:                                               ; preds = %37
  %41 = load i32, ptr %15, align 4, !tbaa !14
  %42 = invoke noundef i32 @_ZNK6icu_7724ConstrainedFieldPosition8getStartEv(ptr noundef nonnull align 8 dereferenceable(25) %20)
          to label %43 unwind label %58

43:                                               ; preds = %40
  %44 = add nsw i32 %41, %42
  %45 = load ptr, ptr %13, align 8, !tbaa !20
  store i32 %44, ptr %45, align 4, !tbaa !14
  call void @_ZN6icu_7724ConstrainedFieldPositionD1Ev(ptr noundef nonnull align 8 dereferenceable(25) %20) #12
  call void @llvm.lifetime.end.p0(i64 32, ptr %20) #12
  br label %63

46:                                               ; preds = %7
  %47 = landingpad { ptr, i32 }
          cleanup
  %48 = extractvalue { ptr, i32 } %47, 0
  store ptr %48, ptr %18, align 8
  %49 = extractvalue { ptr, i32 } %47, 1
  store i32 %49, ptr %19, align 4
  br label %66

50:                                               ; preds = %28
  %51 = landingpad { ptr, i32 }
          cleanup
  %52 = extractvalue { ptr, i32 } %51, 0
  store ptr %52, ptr %18, align 8
  %53 = extractvalue { ptr, i32 } %51, 1
  store i32 %53, ptr %19, align 4
  br label %65

54:                                               ; preds = %34
  %55 = landingpad { ptr, i32 }
          cleanup
  %56 = extractvalue { ptr, i32 } %55, 0
  store ptr %56, ptr %18, align 8
  %57 = extractvalue { ptr, i32 } %55, 1
  store i32 %57, ptr %19, align 4
  br label %62

58:                                               ; preds = %40, %37, %35
  %59 = landingpad { ptr, i32 }
          cleanup
  %60 = extractvalue { ptr, i32 } %59, 0
  store ptr %60, ptr %18, align 8
  %61 = extractvalue { ptr, i32 } %59, 1
  store i32 %61, ptr %19, align 4
  call void @_ZN6icu_7724ConstrainedFieldPositionD1Ev(ptr noundef nonnull align 8 dereferenceable(25) %20) #12
  br label %62

62:                                               ; preds = %58, %54
  call void @llvm.lifetime.end.p0(i64 32, ptr %20) #12
  br label %65

63:                                               ; preds = %43, %31
  %64 = load ptr, ptr %11, align 8, !tbaa !72
  call void @_ZN6icu_7723UnicodeStringAppendableD1Ev(ptr noundef nonnull align 8 dereferenceable(16) %17) #12
  call void @llvm.lifetime.end.p0(i64 16, ptr %17) #12
  call void @_ZN6icu_7713FormattedListD1Ev(ptr noundef nonnull align 8 dereferenceable(20) %16) #12
  call void @llvm.lifetime.end.p0(i64 24, ptr %16) #12
  call void @llvm.lifetime.end.p0(i64 4, ptr %15) #12
  ret ptr %64

65:                                               ; preds = %62, %50
  call void @_ZN6icu_7723UnicodeStringAppendableD1Ev(ptr noundef nonnull align 8 dereferenceable(16) %17) #12
  br label %66

66:                                               ; preds = %65, %46
  call void @llvm.lifetime.end.p0(i64 16, ptr %17) #12
  call void @_ZN6icu_7713FormattedListD1Ev(ptr noundef nonnull align 8 dereferenceable(20) %16) #12
  call void @llvm.lifetime.end.p0(i64 24, ptr %16) #12
  call void @llvm.lifetime.end.p0(i64 4, ptr %15) #12
  br label %67

67:                                               ; preds = %66
  %68 = load ptr, ptr %18, align 8
  %69 = load i32, ptr %19, align 4
  %70 = insertvalue { ptr, i32 } poison, ptr %68, 0
  %71 = insertvalue { ptr, i32 } %70, i32 %69, 1
  resume { ptr, i32 } %71
}