; Function Attrs: mustprogress uwtable
define noundef nonnull align 8 dereferenceable(64) ptr @_ZNK6icu_7713ListFormatter6formatEPKNS_13UnicodeStringEiRS1_iRiR10UErrorCode(ptr noundef nonnull readonly align 8 captures(none) dereferenceable(24) %0, ptr noundef %1, i32 noundef %2, ptr noundef nonnull returned align 8 dereferenceable(64) %3, i32 noundef %4, ptr noundef nonnull writeonly align 4 captures(none) dereferenceable(4) %5, ptr noundef nonnull align 4 dereferenceable(4) %6) local_unnamed_addr #1 align 2 personality ptr @__gxx_personality_v0 {
  %8 = alloca %"class.icu_77::FormattedList", align 8
  %9 = alloca %"class.icu_77::UnicodeStringAppendable", align 8
  %10 = alloca %"class.icu_77::ConstrainedFieldPosition", align 8
  %11 = getelementptr inbounds nuw i8, ptr %3, i64 8
  %12 = load i16, ptr %11, align 8, !tbaa !25
  %13 = icmp slt i16 %12, 0
  %14 = ashr i16 %12, 5
  %15 = sext i16 %14 to i32
  %16 = getelementptr inbounds nuw i8, ptr %3, i64 12
  %17 = load i32, ptr %16, align 4
  %18 = select i1 %13, i32 %17, i32 %15
  call void @llvm.lifetime.start.p0(i64 24, ptr nonnull %8) #19
  call void @_ZNK6icu_7713ListFormatter20formatStringsToValueEPKNS_13UnicodeStringEiR10UErrorCode(ptr dead_on_unwind nonnull writable sret(%"class.icu_77::FormattedList") align 8 %8, ptr noundef nonnull align 8 dereferenceable(24) %0, ptr noundef %1, i32 noundef %2, ptr noundef nonnull align 4 dereferenceable(4) %6)
  call void @llvm.lifetime.start.p0(i64 16, ptr nonnull %9) #19
  store ptr getelementptr inbounds nuw inrange(-16, 64) (i8, ptr @_ZTVN6icu_7723UnicodeStringAppendableE, i64 16), ptr %9, align 8, !tbaa !15
  %19 = getelementptr inbounds nuw i8, ptr %9, i64 8
  store ptr %3, ptr %19, align 8, !tbaa !57
  %20 = load i32, ptr %6, align 4, !tbaa !13
  %21 = icmp slt i32 %20, 1
  br i1 %21, label %22, label %_ZNK6icu_7713FormattedList8appendToERNS_10AppendableER10UErrorCode.exit

22:                                               ; preds = %7
  %23 = getelementptr inbounds nuw i8, ptr %8, i64 8
  %24 = load ptr, ptr %23, align 8, !tbaa !17
  %25 = icmp eq ptr %24, null
  br i1 %25, label %26, label %29

26:                                               ; preds = %22
  %27 = getelementptr inbounds nuw i8, ptr %8, i64 16
  %28 = load i32, ptr %27, align 8, !tbaa !21
  store i32 %28, ptr %6, align 4, !tbaa !13
  br label %_ZNK6icu_7713FormattedList8appendToERNS_10AppendableER10UErrorCode.exit

29:                                               ; preds = %22
  %30 = load ptr, ptr %24, align 8, !tbaa !15
  %31 = getelementptr inbounds nuw i8, ptr %30, i64 32
  %32 = load ptr, ptr %31, align 8
  %33 = invoke noundef nonnull align 8 dereferenceable(8) ptr %32(ptr noundef nonnull align 8 dereferenceable(300) %24, ptr noundef nonnull align 8 dereferenceable(8) %9, ptr noundef nonnull align 4 dereferenceable(4) %6)
          to label %_ZNK6icu_7713FormattedList8appendToERNS_10AppendableER10UErrorCode.exit unwind label %55

_ZNK6icu_7713FormattedList8appendToERNS_10AppendableER10UErrorCode.exit: ; preds = %26, %7, %29
  %34 = icmp sgt i32 %4, -1
  br i1 %34, label %35, label %62

35:                                               ; preds = %_ZNK6icu_7713FormattedList8appendToERNS_10AppendableER10UErrorCode.exit
  call void @llvm.lifetime.start.p0(i64 32, ptr nonnull %10) #19
  invoke void @_ZN6icu_7724ConstrainedFieldPositionC1Ev(ptr noundef nonnull align 8 dereferenceable(25) %10)
          to label %36 unwind label %57

36:                                               ; preds = %35
  invoke void @_ZN6icu_7724ConstrainedFieldPosition14constrainFieldEii(ptr noundef nonnull align 8 dereferenceable(25) %10, i32 noundef 4099, i32 noundef %4)
          to label %37 unwind label %59

37:                                               ; preds = %36
  %38 = load i32, ptr %6, align 4, !tbaa !13
  %39 = icmp slt i32 %38, 1
  br i1 %39, label %40, label %_ZNK6icu_7713FormattedList12nextPositionERNS_24ConstrainedFieldPositionER10UErrorCode.exit

40:                                               ; preds = %37
  %41 = getelementptr inbounds nuw i8, ptr %8, i64 8
  %42 = load ptr, ptr %41, align 8, !tbaa !17
  %43 = icmp eq ptr %42, null
  br i1 %43, label %44, label %47

44:                                               ; preds = %40
  %45 = getelementptr inbounds nuw i8, ptr %8, i64 16
  %46 = load i32, ptr %45, align 8, !tbaa !21
  store i32 %46, ptr %6, align 4, !tbaa !13
  br label %_ZNK6icu_7713FormattedList12nextPositionERNS_24ConstrainedFieldPositionER10UErrorCode.exit

47:                                               ; preds = %40
  %48 = load ptr, ptr %42, align 8, !tbaa !15
  %49 = getelementptr inbounds nuw i8, ptr %48, i64 40
  %50 = load ptr, ptr %49, align 8
  %51 = invoke noundef signext i8 %50(ptr noundef nonnull align 8 dereferenceable(300) %42, ptr noundef nonnull align 8 dereferenceable(25) %10, ptr noundef nonnull align 4 dereferenceable(4) %6)
          to label %_ZNK6icu_7713FormattedList12nextPositionERNS_24ConstrainedFieldPositionER10UErrorCode.exit unwind label %59

_ZNK6icu_7713FormattedList12nextPositionERNS_24ConstrainedFieldPositionER10UErrorCode.exit: ; preds = %44, %37, %47
  %52 = getelementptr inbounds nuw i8, ptr %10, i64 12
  %53 = load i32, ptr %52, align 4, !tbaa !59
  %54 = add nsw i32 %53, %18
  store i32 %54, ptr %5, align 4, !tbaa !12
  call void @_ZN6icu_7724ConstrainedFieldPositionD1Ev(ptr noundef nonnull align 8 dereferenceable(25) %10) #19
  call void @llvm.lifetime.end.p0(i64 32, ptr nonnull %10) #19
  br label %62

55:                                               ; preds = %29
  %56 = landingpad { ptr, i32 }
          cleanup
  br label %63

57:                                               ; preds = %35
  %58 = landingpad { ptr, i32 }
          cleanup
  br label %61

59:                                               ; preds = %47, %36
  %60 = landingpad { ptr, i32 }
          cleanup
  call void @_ZN6icu_7724ConstrainedFieldPositionD1Ev(ptr noundef nonnull align 8 dereferenceable(25) %10) #19
  br label %61

61:                                               ; preds = %59, %57
  %.pn = phi { ptr, i32 } [ %60, %59 ], [ %58, %57 ]
  call void @llvm.lifetime.end.p0(i64 32, ptr nonnull %10) #19
  br label %63

62:                                               ; preds = %_ZNK6icu_7713FormattedList12nextPositionERNS_24ConstrainedFieldPositionER10UErrorCode.exit, %_ZNK6icu_7713FormattedList8appendToERNS_10AppendableER10UErrorCode.exit
  call void @_ZN6icu_7723UnicodeStringAppendableD1Ev(ptr noundef nonnull align 8 dereferenceable(16) %9) #19
  call void @llvm.lifetime.end.p0(i64 16, ptr nonnull %9) #19
  call void @_ZN6icu_7713FormattedListD1Ev(ptr noundef nonnull align 8 dereferenceable(20) %8) #19
  call void @llvm.lifetime.end.p0(i64 24, ptr nonnull %8) #19
  ret ptr %3

63:                                               ; preds = %61, %55
  %.pn.pn = phi { ptr, i32 } [ %.pn, %61 ], [ %56, %55 ]
  call void @_ZN6icu_7723UnicodeStringAppendableD1Ev(ptr noundef nonnull align 8 dereferenceable(16) %9) #19
  call void @llvm.lifetime.end.p0(i64 16, ptr nonnull %9) #19
  call void @_ZN6icu_7713FormattedListD1Ev(ptr noundef nonnull align 8 dereferenceable(20) %8) #19
  call void @llvm.lifetime.end.p0(i64 24, ptr nonnull %8) #19
  resume { ptr, i32 } %.pn.pn
}